target datalayout = "e-m:e-p270:32:32-p271:32:32-p272:64:64-i64:64-i128:128-f80:128-n8:16:32:64-S128"
target triple = "x86_64-pc-linux-gnu"

%class.XMMRegister = type { i32 }
%class.KRegister = type { i32 }

@.str = private unnamed_addr constant [46 x i8] c"src/hotspot/cpu/x86/c2_MacroAssembler_x86.cpp\00", align 1
@g_assert_poison = external global ptr, align 8
@.str.4 = private unnamed_addr constant [20 x i8] c"Unsupported type %s\00", align 1

; Function Attrs: mustprogress nounwind uwtable
define hidden void @_ZN17C2_MacroAssembler29vector_popcount_integral_evexE9BasicType11XMMRegisterS1_9KRegisterbi(ptr noundef nonnull align 8 dereferenceable(40) %0, i8 noundef zeroext %1, i32 %2, i32 %3, i32 %4, i1 noundef zeroext %5, i32 noundef %6) #1 align 2 {
  %8 = alloca %class.XMMRegister, align 4
  %9 = alloca %class.XMMRegister, align 4
  %10 = alloca %class.KRegister, align 4
  %11 = alloca ptr, align 8
  %12 = alloca i8, align 1
  %13 = alloca i8, align 1
  %14 = alloca i32, align 4
  %15 = alloca %class.XMMRegister, align 4
  %16 = alloca %class.KRegister, align 4
  %17 = alloca %class.XMMRegister, align 4
  %18 = alloca %class.XMMRegister, align 4
  %19 = alloca %class.KRegister, align 4
  %20 = alloca %class.XMMRegister, align 4
  %21 = alloca %class.XMMRegister, align 4
  %22 = alloca %class.KRegister, align 4
  %23 = alloca %class.XMMRegister, align 4
  %24 = alloca %class.XMMRegister, align 4
  %25 = alloca %class.KRegister, align 4
  %26 = alloca %class.XMMRegister, align 4
  %27 = getelementptr inbounds %class.XMMRegister, ptr %8, i32 0, i32 0
  store i32 %2, ptr %27, align 4
  %28 = getelementptr inbounds %class.XMMRegister, ptr %9, i32 0, i32 0
  store i32 %3, ptr %28, align 4
  %29 = getelementptr inbounds %class.KRegister, ptr %10, i32 0, i32 0
  store i32 %4, ptr %29, align 4
  store ptr %0, ptr %11, align 8
  store i8 %1, ptr %12, align 1
  %30 = zext i1 %5 to i8
  store i8 %30, ptr %13, align 1
  store i32 %6, ptr %14, align 4
  %31 = load ptr, ptr %11, align 8
  %32 = load i8, ptr %12, align 1
  %33 = zext i8 %32 to i32
  switch i32 %33, label %74 [
    i32 11, label %34
    i32 10, label %44
    i32 5, label %54
    i32 9, label %54
    i32 8, label %64
    i32 4, label %64
  ]

34:                                               ; preds = %7
  call void @llvm.memcpy.p0.p0.i64(ptr align 4 %15, ptr align 4 %8, i64 4, i1 false)
  call void @llvm.memcpy.p0.p0.i64(ptr align 4 %16, ptr align 4 %10, i64 4, i1 false)
  call void @llvm.memcpy.p0.p0.i64(ptr align 4 %17, ptr align 4 %9, i64 4, i1 false)
  %35 = load i8, ptr %13, align 1
  %36 = trunc i8 %35 to i1
  %37 = load i32, ptr %14, align 4
  %38 = getelementptr inbounds %class.XMMRegister, ptr %15, i32 0, i32 0
  %39 = load i32, ptr %38, align 4
  %40 = getelementptr inbounds %class.KRegister, ptr %16, i32 0, i32 0
  %41 = load i32, ptr %40, align 4
  %42 = getelementptr inbounds %class.XMMRegister, ptr %17, i32 0, i32 0
  %43 = load i32, ptr %42, align 4
  call void @_ZN9Assembler9evpopcntqE11XMMRegister9KRegisterS0_bi(ptr noundef nonnull align 8 dereferenceable(40) %31, i32 %39, i32 %41, i32 %43, i1 noundef zeroext %36, i32 noundef %37)
  br label %80

44:                                               ; preds = %7
  call void @llvm.memcpy.p0.p0.i64(ptr align 4 %18, ptr align 4 %8, i64 4, i1 false)
  call void @llvm.memcpy.p0.p0.i64(ptr align 4 %19, ptr align 4 %10, i64 4, i1 false)
  call void @llvm.memcpy.p0.p0.i64(ptr align 4 %20, ptr align 4 %9, i64 4, i1 false)
  %45 = load i8, ptr %13, align 1
  %46 = trunc i8 %45 to i1
  %47 = load i32, ptr %14, align 4
  %48 = getelementptr inbounds %class.XMMRegister, ptr %18, i32 0, i32 0
  %49 = load i32, ptr %48, align 4
  %50 = getelementptr inbounds %class.KRegister, ptr %19, i32 0, i32 0
  %51 = load i32, ptr %50, align 4
  %52 = getelementptr inbounds %class.XMMRegister, ptr %20, i32 0, i32 0
  %53 = load i32, ptr %52, align 4
  call void @_ZN9Assembler9evpopcntdE11XMMRegister9KRegisterS0_bi(ptr noundef nonnull align 8 dereferenceable(40) %31, i32 %49, i32 %51, i32 %53, i1 noundef zeroext %46, i32 noundef %47)
  br label %80

54:                                               ; preds = %7, %7
  call void @llvm.memcpy.p0.p0.i64(ptr align 4 %21, ptr align 4 %8, i64 4, i1 false)
  call void @llvm.memcpy.p0.p0.i64(ptr align 4 %22, ptr align 4 %10, i64 4, i1 false)
  call void @llvm.memcpy.p0.p0.i64(ptr align 4 %23, ptr align 4 %9, i64 4, i1 false)
  %55 = load i8, ptr %13, align 1
  %56 = trunc i8 %55 to i1
  %57 = load i32, ptr %14, align 4
  %58 = getelementptr inbounds %class.XMMRegister, ptr %21, i32 0, i32 0
  %59 = load i32, ptr %58, align 4
  %60 = getelementptr inbounds %class.KRegister, ptr %22, i32 0, i32 0
  %61 = load i32, ptr %60, align 4
  %62 = getelementptr inbounds %class.XMMRegister, ptr %23, i32 0, i32 0
  %63 = load i32, ptr %62, align 4
  call void @_ZN9Assembler9evpopcntwE11XMMRegister9KRegisterS0_bi(ptr noundef nonnull align 8 dereferenceable(40) %31, i32 %59, i32 %61, i32 %63, i1 noundef zeroext %56, i32 noundef %57)
  br label %80

64:                                               ; preds = %7, %7
  call void @llvm.memcpy.p0.p0.i64(ptr align 4 %24, ptr align 4 %8, i64 4, i1 false)
  call void @llvm.memcpy.p0.p0.i64(ptr align 4 %25, ptr align 4 %10, i64 4, i1 false)
  call void @llvm.memcpy.p0.p0.i64(ptr align 4 %26, ptr align 4 %9, i64 4, i1 false)
  %65 = load i8, ptr %13, align 1
  %66 = trunc i8 %65 to i1
  %67 = load i32, ptr %14, align 4
  %68 = getelementptr inbounds %class.XMMRegister, ptr %24, i32 0, i32 0
  %69 = load i32, ptr %68, align 4
  %70 = getelementptr inbounds %class.KRegister, ptr %25, i32 0, i32 0
  %71 = load i32, ptr %70, align 4
  %72 = getelementptr inbounds %class.XMMRegister, ptr %26, i32 0, i32 0
  %73 = load i32, ptr %72, align 4
  call void @_ZN9Assembler9evpopcntbE11XMMRegister9KRegisterS0_bi(ptr noundef nonnull align 8 dereferenceable(40) %31, i32 %69, i32 %71, i32 %73, i1 noundef zeroext %66, i32 noundef %67)
  br label %80

74:                                               ; preds = %7
  br label %75

75:                                               ; preds = %74
  %76 = load ptr, ptr @g_assert_poison, align 8
  store i8 88, ptr %76, align 1
  %77 = load i8, ptr %12, align 1
  %78 = call noundef ptr @_Z9type2name9BasicType(i8 noundef zeroext %77)
  call void (i32, ptr, i32, ptr, ...) @_Z12report_fatal11VMErrorTypePKciS1_z(i32 noundef -536870912, ptr noundef @.str, i32 noundef 5637, ptr noundef @.str.4, ptr noundef %78) #8
  unreachable

79:                                               ; No predecessors!
  br label %80

80:                                               ; preds = %79, %64, %54, %44, %34
  ret void
}