; Function Attrs: mustprogress nounwind uwtable
define hidden void @_ZN17C2_MacroAssembler29vector_popcount_integral_evexE9BasicType11XMMRegisterS1_9KRegisterbi(ptr noundef nonnull align 8 dereferenceable(40) %0, i8 noundef zeroext %1, i32 %2, i32 %3, i32 %4, i1 noundef zeroext %5, i32 noundef %6) local_unnamed_addr #0 align 2 {
  switch i8 %1, label %12 [
    i8 11, label %8
    i8 10, label %9
    i8 5, label %10
    i8 9, label %10
    i8 8, label %11
    i8 4, label %11
  ]

8:                                                ; preds = %7
  tail call void @_ZN9Assembler9evpopcntqE11XMMRegister9KRegisterS0_bi(ptr noundef nonnull align 8 dereferenceable(40) %0, i32 %2, i32 %4, i32 %3, i1 noundef zeroext %5, i32 noundef %6) #11
  br label %15

9:                                                ; preds = %7
  tail call void @_ZN9Assembler9evpopcntdE11XMMRegister9KRegisterS0_bi(ptr noundef nonnull align 8 dereferenceable(40) %0, i32 %2, i32 %4, i32 %3, i1 noundef zeroext %5, i32 noundef %6) #11
  br label %15

10:                                               ; preds = %7, %7
  tail call void @_ZN9Assembler9evpopcntwE11XMMRegister9KRegisterS0_bi(ptr noundef nonnull align 8 dereferenceable(40) %0, i32 %2, i32 %4, i32 %3, i1 noundef zeroext %5, i32 noundef %6) #11
  br label %15

11:                                               ; preds = %7, %7
  tail call void @_ZN9Assembler9evpopcntbE11XMMRegister9KRegisterS0_bi(ptr noundef nonnull align 8 dereferenceable(40) %0, i32 %2, i32 %4, i32 %3, i1 noundef zeroext %5, i32 noundef %6) #11
  br label %15

12:                                               ; preds = %7
  %13 = load ptr, ptr @g_assert_poison, align 8
  store i8 88, ptr %13, align 1
  %14 = tail call noundef ptr @_Z9type2name9BasicType(i8 noundef zeroext %1) #11
  tail call void (i32, ptr, i32, ptr, ...) @_Z12report_fatal11VMErrorTypePKciS1_z(i32 noundef -536870912, ptr noundef nonnull @.str, i32 noundef 5637, ptr noundef nonnull @.str.4, ptr noundef %14) #12
  unreachable

15:                                               ; preds = %11, %10, %9, %8
  ret void
}